target datalayout = "e-m:e-p270:32:32-p271:32:32-p272:64:64-i64:64-i128:128-f80:128-n8:16:32:64-S128"
target triple = "x86_64-pc-linux-gnu"

%"class.vcg::Color4" = type { %"class.vcg::Point4.1" }
%"class.vcg::Point4.1" = type { [4 x i8] }
%class.QFont = type <{ %class.QExplicitlySharedDataPointer, i32, [4 x i8] }>
%class.QExplicitlySharedDataPointer = type { ptr }
%"class.vcg::Point3" = type { [3 x float] }
%"class.vcg::MovableCoordinateFrame" = type { %"class.vcg::CoordinateFrame.base", %"class.vcg::Point3", %"class.vcg::Quaternion" }
%"class.vcg::CoordinateFrame.base" = type <{ ptr, %"class.vcg::Color4", %"class.vcg::Color4", %"class.vcg::Color4", %"class.vcg::Color4", float, float, %class.QFont, i8, i8, i8 }>
%"class.vcg::Quaternion" = type { %"class.vcg::Point4" }
%"class.vcg::Point4" = type { [4 x float] }

; Function Attrs: mustprogress nounwind uwtable
define { <2 x float>, <2 x float> } @_ZN3vcg22MovableCoordinateFrame11GetRotationEv(ptr noundef nonnull align 8 dereferenceable(80) %0) unnamed_addr #0 align 2 {
  %2 = alloca %"class.vcg::Quaternion", align 4
  %3 = alloca ptr, align 8
  store ptr %0, ptr %3, align 8
  %4 = load ptr, ptr %3, align 8
  %5 = getelementptr inbounds %"class.vcg::MovableCoordinateFrame", ptr %4, i32 0, i32 2
  call void @llvm.memcpy.p0.p0.i64(ptr align 4 %2, ptr align 8 %5, i64 16, i1 false)
  %6 = getelementptr inbounds %"class.vcg::Quaternion", ptr %2, i32 0, i32 0
  %7 = getelementptr inbounds %"class.vcg::Point4", ptr %6, i32 0, i32 0
  %8 = load { <2 x float>, <2 x float> }, ptr %7, align 4
  ret { <2 x float>, <2 x float> } %8
}